; Function Attrs: mustprogress nounwind uwtable
define hidden void @_ZNK5Mutex14print_on_errorEP12outputStream(ptr noundef nonnull align 8 dereferenceable(104) %0, ptr noundef nonnull %1) local_unnamed_addr #0 align 2 {
  %3 = ptrtoint ptr %0 to i64
  tail call void (ptr, ptr, ...) @_ZN12outputStream5printEPKcz(ptr noundef nonnull align 8 dereferenceable(56) %1, ptr noundef nonnull @.str, i64 noundef %3) #7
  %4 = getelementptr inbounds i8, ptr %0, i64 96
  %5 = load ptr, ptr %4, align 8
  tail call void (ptr, ptr, ...) @_ZN12outputStream5printEPKcz(ptr noundef nonnull align 8 dereferenceable(56) %1, ptr noundef nonnull @.str.4, ptr noundef %5) #7
  %6 = load volatile ptr, ptr %0, align 8
  %7 = ptrtoint ptr %6 to i64
  tail call void (ptr, ptr, ...) @_ZN12outputStream5printEPKcz(ptr noundef nonnull align 8 dereferenceable(56) %1, ptr noundef nonnull @.str.5, i64 noundef %7) #7
  ret void
}